; Function Attrs: nounwind uwtable
define internal fastcc void @spcache_init() unnamed_addr #0 {
  %1 = load ptr, ptr @SearchPathCache, align 8
  %.not = icmp eq ptr %1, null
  br i1 %.not, label %7, label %2

2:                                                ; preds = %0
  %.b2 = load i1, ptr @searchPathCacheValid, align 1
  br i1 %.b2, label %3, label %7

3:                                                ; preds = %2
  %4 = getelementptr inbounds nuw i8, ptr %1, i64 8
  %5 = load i32, ptr %4, align 8
  %6 = icmp ult i32 %5, 256
  br i1 %6, label %23, label %7

7:                                                ; preds = %3, %2, %0
  store i1 false, ptr @searchPathCacheValid, align 1
  store i1 true, ptr @baseSearchPathValid, align 1
  store ptr null, ptr @SearchPathCache, align 8
  store ptr null, ptr @LastSearchPathCacheEntry, align 8
  %8 = load ptr, ptr @SearchPathCacheContext, align 8
  %9 = icmp eq ptr %8, null
  br i1 %9, label %10, label %13

10:                                               ; preds = %7
  %11 = load ptr, ptr @TopMemoryContext, align 8
  %12 = tail call ptr @AllocSetContextCreateInternal(ptr noundef %11, ptr noundef nonnull @.str.50, i64 noundef 0, i64 noundef 8192, i64 noundef 8388608) #19
  store ptr %12, ptr @SearchPathCacheContext, align 8
  br label %14

13:                                               ; preds = %7
  tail call void @MemoryContextReset(ptr noundef nonnull %8) #19
  %.pre = load ptr, ptr @SearchPathCacheContext, align 8
  br label %14

14:                                               ; preds = %13, %10
  %15 = phi ptr [ %.pre, %13 ], [ %12, %10 ]
  %16 = tail call ptr @MemoryContextAllocZero(ptr noundef %15, i64 noundef 48) #19
  %17 = getelementptr inbounds nuw i8, ptr %16, i64 32
  store ptr %15, ptr %17, align 8
  %18 = getelementptr inbounds nuw i8, ptr %16, i64 40
  store ptr null, ptr %18, align 8
  %19 = tail call ptr @MemoryContextAllocExtended(ptr noundef %15, i64 noundef 1280, i32 noundef 5) #19
  %20 = getelementptr inbounds nuw i8, ptr %16, i64 24
  store ptr %19, ptr %20, align 8
  store i64 32, ptr %16, align 8
  %21 = getelementptr inbounds nuw i8, ptr %16, i64 12
  store i32 31, ptr %21, align 4
  %22 = getelementptr inbounds nuw i8, ptr %16, i64 16
  store i32 28, ptr %22, align 8
  store ptr %16, ptr @SearchPathCache, align 8
  store i1 true, ptr @searchPathCacheValid, align 1
  br label %23

23:                                               ; preds = %3, %14
  ret void
}